target datalayout = "e-m:e-p270:32:32-p271:32:32-p272:64:64-i64:64-i128:128-f80:128-n8:16:32:64-S128"
target triple = "x86_64-pc-linux-gnu"

%struct._someip_parameter_struct_uat = type { i32, ptr, i32, i32, i8, i32, i32, ptr, i32, i32, ptr }

; Function Attrs: null_pointer_is_valid sspstrong uwtable
define internal ptr @copy_someip_parameter_struct_cb(ptr noundef %0, ptr noundef %1, i64 noundef %2) #0 {
  %4 = alloca ptr, align 8
  %5 = alloca ptr, align 8
  %6 = alloca i64, align 8
  %7 = alloca ptr, align 8
  %8 = alloca ptr, align 8
  store ptr %0, ptr %4, align 8
  store ptr %1, ptr %5, align 8
  store i64 %2, ptr %6, align 8
  call void @llvm.lifetime.start.p0(i64 8, ptr %7) #19
  %9 = load ptr, ptr %4, align 8
  store ptr %9, ptr %7, align 8
  call void @llvm.lifetime.start.p0(i64 8, ptr %8) #19
  %10 = load ptr, ptr %5, align 8
  store ptr %10, ptr %8, align 8
  %11 = load ptr, ptr %8, align 8
  %12 = getelementptr inbounds nuw %struct._someip_parameter_struct_uat, ptr %11, i32 0, i32 0
  %13 = load i32, ptr %12, align 8
  %14 = load ptr, ptr %7, align 8
  %15 = getelementptr inbounds nuw %struct._someip_parameter_struct_uat, ptr %14, i32 0, i32 0
  store i32 %13, ptr %15, align 8
  %16 = load ptr, ptr %8, align 8
  %17 = getelementptr inbounds nuw %struct._someip_parameter_struct_uat, ptr %16, i32 0, i32 1
  %18 = load ptr, ptr %17, align 8
  %19 = icmp ne ptr %18, null
  br i1 %19, label %20, label %27

20:                                               ; preds = %3
  %21 = load ptr, ptr %8, align 8
  %22 = getelementptr inbounds nuw %struct._someip_parameter_struct_uat, ptr %21, i32 0, i32 1
  %23 = load ptr, ptr %22, align 8
  %24 = call noalias ptr @g_strdup(ptr noundef %23)
  %25 = load ptr, ptr %7, align 8
  %26 = getelementptr inbounds nuw %struct._someip_parameter_struct_uat, ptr %25, i32 0, i32 1
  store ptr %24, ptr %26, align 8
  br label %30

27:                                               ; preds = %3
  %28 = load ptr, ptr %7, align 8
  %29 = getelementptr inbounds nuw %struct._someip_parameter_struct_uat, ptr %28, i32 0, i32 1
  store ptr null, ptr %29, align 8
  br label %30

30:                                               ; preds = %27, %20
  %31 = load ptr, ptr %8, align 8
  %32 = getelementptr inbounds nuw %struct._someip_parameter_struct_uat, ptr %31, i32 0, i32 2
  %33 = load i32, ptr %32, align 8
  %34 = load ptr, ptr %7, align 8
  %35 = getelementptr inbounds nuw %struct._someip_parameter_struct_uat, ptr %34, i32 0, i32 2
  store i32 %33, ptr %35, align 8
  %36 = load ptr, ptr %8, align 8
  %37 = getelementptr inbounds nuw %struct._someip_parameter_struct_uat, ptr %36, i32 0, i32 3
  %38 = load i32, ptr %37, align 4
  %39 = load ptr, ptr %7, align 8
  %40 = getelementptr inbounds nuw %struct._someip_parameter_struct_uat, ptr %39, i32 0, i32 3
  store i32 %38, ptr %40, align 4
  %41 = load ptr, ptr %8, align 8
  %42 = getelementptr inbounds nuw %struct._someip_parameter_struct_uat, ptr %41, i32 0, i32 4
  %43 = load i8, ptr %42, align 8, !range !6, !noundef !7
  %44 = trunc i8 %43 to i1
  %45 = load ptr, ptr %7, align 8
  %46 = getelementptr inbounds nuw %struct._someip_parameter_struct_uat, ptr %45, i32 0, i32 4
  %47 = zext i1 %44 to i8
  store i8 %47, ptr %46, align 8
  %48 = load ptr, ptr %8, align 8
  %49 = getelementptr inbounds nuw %struct._someip_parameter_struct_uat, ptr %48, i32 0, i32 5
  %50 = load i32, ptr %49, align 4
  %51 = load ptr, ptr %7, align 8
  %52 = getelementptr inbounds nuw %struct._someip_parameter_struct_uat, ptr %51, i32 0, i32 5
  store i32 %50, ptr %52, align 4
  %53 = load ptr, ptr %8, align 8
  %54 = getelementptr inbounds nuw %struct._someip_parameter_struct_uat, ptr %53, i32 0, i32 6
  %55 = load i32, ptr %54, align 8
  %56 = load ptr, ptr %7, align 8
  %57 = getelementptr inbounds nuw %struct._someip_parameter_struct_uat, ptr %56, i32 0, i32 6
  store i32 %55, ptr %57, align 8
  %58 = load ptr, ptr %8, align 8
  %59 = getelementptr inbounds nuw %struct._someip_parameter_struct_uat, ptr %58, i32 0, i32 7
  %60 = load ptr, ptr %59, align 8
  %61 = icmp ne ptr %60, null
  br i1 %61, label %62, label %69

62:                                               ; preds = %30
  %63 = load ptr, ptr %8, align 8
  %64 = getelementptr inbounds nuw %struct._someip_parameter_struct_uat, ptr %63, i32 0, i32 7
  %65 = load ptr, ptr %64, align 8
  %66 = call noalias ptr @g_strdup(ptr noundef %65)
  %67 = load ptr, ptr %7, align 8
  %68 = getelementptr inbounds nuw %struct._someip_parameter_struct_uat, ptr %67, i32 0, i32 7
  store ptr %66, ptr %68, align 8
  br label %72

69:                                               ; preds = %30
  %70 = load ptr, ptr %7, align 8
  %71 = getelementptr inbounds nuw %struct._someip_parameter_struct_uat, ptr %70, i32 0, i32 7
  store ptr null, ptr %71, align 8
  br label %72

72:                                               ; preds = %69, %62
  %73 = load ptr, ptr %8, align 8
  %74 = getelementptr inbounds nuw %struct._someip_parameter_struct_uat, ptr %73, i32 0, i32 8
  %75 = load i32, ptr %74, align 8
  %76 = load ptr, ptr %7, align 8
  %77 = getelementptr inbounds nuw %struct._someip_parameter_struct_uat, ptr %76, i32 0, i32 8
  store i32 %75, ptr %77, align 8
  %78 = load ptr, ptr %8, align 8
  %79 = getelementptr inbounds nuw %struct._someip_parameter_struct_uat, ptr %78, i32 0, i32 9
  %80 = load i32, ptr %79, align 4
  %81 = load ptr, ptr %7, align 8
  %82 = getelementptr inbounds nuw %struct._someip_parameter_struct_uat, ptr %81, i32 0, i32 9
  store i32 %80, ptr %82, align 4
  %83 = load ptr, ptr %8, align 8
  %84 = getelementptr inbounds nuw %struct._someip_parameter_struct_uat, ptr %83, i32 0, i32 10
  %85 = load ptr, ptr %84, align 8
  %86 = icmp ne ptr %85, null
  br i1 %86, label %87, label %94

87:                                               ; preds = %72
  %88 = load ptr, ptr %8, align 8
  %89 = getelementptr inbounds nuw %struct._someip_parameter_struct_uat, ptr %88, i32 0, i32 10
  %90 = load ptr, ptr %89, align 8
  %91 = call noalias ptr @g_strdup(ptr noundef %90)
  %92 = load ptr, ptr %7, align 8
  %93 = getelementptr inbounds nuw %struct._someip_parameter_struct_uat, ptr %92, i32 0, i32 10
  store ptr %91, ptr %93, align 8
  br label %97

94:                                               ; preds = %72
  %95 = load ptr, ptr %7, align 8
  %96 = getelementptr inbounds nuw %struct._someip_parameter_struct_uat, ptr %95, i32 0, i32 10
  store ptr null, ptr %96, align 8
  br label %97

97:                                               ; preds = %94, %87
  %98 = load ptr, ptr %7, align 8
  call void @llvm.lifetime.end.p0(i64 8, ptr %8) #19
  call void @llvm.lifetime.end.p0(i64 8, ptr %7) #19
  ret ptr %98
}