; Function Attrs: null_pointer_is_valid sspstrong uwtable
define internal noundef ptr @copy_someip_parameter_struct_cb(ptr noundef returned writeonly captures(ret: address, provenance) initializes((0, 4), (8, 25), (28, 36), (40, 64)) %0, ptr noundef readonly captures(none) %1, i64 %2) #0 {
  %4 = load i32, ptr %1, align 8
  store i32 %4, ptr %0, align 8
  %5 = getelementptr inbounds nuw i8, ptr %1, i64 8
  %6 = load ptr, ptr %5, align 8
  %.not = icmp eq ptr %6, null
  br i1 %.not, label %9, label %7

7:                                                ; preds = %3
  %8 = tail call noalias ptr @g_strdup(ptr noundef nonnull %6)
  br label %9

9:                                                ; preds = %3, %7
  %.sink = phi ptr [ %8, %7 ], [ null, %3 ]
  %10 = getelementptr inbounds nuw i8, ptr %0, i64 8
  store ptr %.sink, ptr %10, align 8
  %11 = getelementptr inbounds nuw i8, ptr %1, i64 16
  %12 = load i32, ptr %11, align 8
  %13 = getelementptr inbounds nuw i8, ptr %0, i64 16
  store i32 %12, ptr %13, align 8
  %14 = getelementptr inbounds nuw i8, ptr %1, i64 20
  %15 = load i32, ptr %14, align 4
  %16 = getelementptr inbounds nuw i8, ptr %0, i64 20
  store i32 %15, ptr %16, align 4
  %17 = getelementptr inbounds nuw i8, ptr %1, i64 24
  %18 = load i8, ptr %17, align 8, !range !6, !noundef !7
  %19 = getelementptr inbounds nuw i8, ptr %0, i64 24
  store i8 %18, ptr %19, align 8
  %20 = getelementptr inbounds nuw i8, ptr %1, i64 28
  %21 = load i32, ptr %20, align 4
  %22 = getelementptr inbounds nuw i8, ptr %0, i64 28
  store i32 %21, ptr %22, align 4
  %23 = getelementptr inbounds nuw i8, ptr %1, i64 32
  %24 = load i32, ptr %23, align 8
  %25 = getelementptr inbounds nuw i8, ptr %0, i64 32
  store i32 %24, ptr %25, align 8
  %26 = getelementptr inbounds nuw i8, ptr %1, i64 40
  %27 = load ptr, ptr %26, align 8
  %.not33 = icmp eq ptr %27, null
  br i1 %.not33, label %30, label %28

28:                                               ; preds = %9
  %29 = tail call noalias ptr @g_strdup(ptr noundef nonnull %27)
  br label %30

30:                                               ; preds = %9, %28
  %.sink35 = phi ptr [ %29, %28 ], [ null, %9 ]
  %31 = getelementptr inbounds nuw i8, ptr %0, i64 40
  store ptr %.sink35, ptr %31, align 8
  %32 = getelementptr inbounds nuw i8, ptr %1, i64 48
  %33 = load i32, ptr %32, align 8
  %34 = getelementptr inbounds nuw i8, ptr %0, i64 48
  store i32 %33, ptr %34, align 8
  %35 = getelementptr inbounds nuw i8, ptr %1, i64 52
  %36 = load i32, ptr %35, align 4
  %37 = getelementptr inbounds nuw i8, ptr %0, i64 52
  store i32 %36, ptr %37, align 4
  %38 = getelementptr inbounds nuw i8, ptr %1, i64 56
  %39 = load ptr, ptr %38, align 8
  %.not34 = icmp eq ptr %39, null
  br i1 %.not34, label %42, label %40

40:                                               ; preds = %30
  %41 = tail call noalias ptr @g_strdup(ptr noundef nonnull %39)
  br label %42

42:                                               ; preds = %30, %40
  %.sink36 = phi ptr [ %41, %40 ], [ null, %30 ]
  %43 = getelementptr inbounds nuw i8, ptr %0, i64 56
  store ptr %.sink36, ptr %43, align 8
  ret ptr %0
}